target datalayout = "e-m:e-p270:32:32-p271:32:32-p272:64:64-i64:64-i128:128-f80:128-n8:16:32:64-S128"
target triple = "x86_64-unknown-linux-gnu"

%struct._DBusDisplayConsole = type { %struct._GDBusObjectSkeleton, %struct.DisplayChangeListener, ptr, ptr, ptr, ptr, ptr, ptr, ptr, i32, i32, i32, %struct.Notifier }
%struct._GDBusObjectSkeleton = type { %struct._GObject, ptr }
%struct._GObject = type { %struct._GTypeInstance, i32, ptr }
%struct._GTypeInstance = type { ptr }
%struct.DisplayChangeListener = type { i64, ptr, ptr, ptr, %struct.anon }
%struct.anon = type { ptr, ptr }
%struct.Notifier = type { ptr, %struct.anon.0 }
%struct.anon.0 = type { ptr, ptr }

@dbus_display_console_get_type.static_g_define_type_id = internal global i64 0, align 8
@.str.25 = private unnamed_addr constant [19 x i8] c"DBusDisplayConsole\00", align 1

; Function Attrs: nounwind sspstrong uwtable
define internal i64 @dbus_display_console_get_type_once() #0 {
entry:
  %g_define_type_id = alloca i64, align 8
  %call = call i64 @g_dbus_object_skeleton_get_type() #7
  %call1 = call ptr @g_intern_static_string(ptr noundef @.str.25)
  %call2 = call i64 @g_type_register_static_simple(i64 noundef %call, ptr noundef %call1, i32 noundef 208, ptr noundef @dbus_display_console_class_intern_init, i32 noundef 176, ptr noundef @dbus_display_console_init, i32 noundef 0)
  store i64 %call2, ptr %g_define_type_id, align 8
  %0 = load i64, ptr %g_define_type_id, align 8
  ret i64 %0
}

; Function Attrs: nounwind sspstrong uwtable
define dso_local i64 @dbus_display_console_get_type() #0 {
entry:
  %tmp = alloca i32, align 4
  %gapg_temp_newval = alloca i64, align 8
  %gapg_temp_atomic = alloca ptr, align 8
  %tmp1 = alloca i64, align 8
  %g_define_type_id = alloca i64, align 8
  store ptr @dbus_display_console_get_type.static_g_define_type_id, ptr %gapg_temp_atomic, align 8
  %0 = load ptr, ptr %gapg_temp_atomic, align 8
  %1 = load atomic i64, ptr %0 seq_cst, align 8
  store i64 %1, ptr %gapg_temp_newval, align 8
  %2 = load i64, ptr %gapg_temp_newval, align 8
  store i64 %2, ptr %tmp1, align 8
  %3 = load i64, ptr %tmp1, align 8
  %tobool = icmp ne i64 %3, 0
  br i1 %tobool, label %land.end, label %land.rhs

land.rhs:                                         ; preds = %entry
  %call = call i32 @g_once_init_enter(ptr noundef @dbus_display_console_get_type.static_g_define_type_id)
  %tobool2 = icmp ne i32 %call, 0
  br label %land.end

land.end:                                         ; preds = %land.rhs, %entry
  %4 = phi i1 [ false, %entry ], [ %tobool2, %land.rhs ]
  %land.ext = zext i1 %4 to i32
  store i32 %land.ext, ptr %tmp, align 4
  %5 = load i32, ptr %tmp, align 4
  %tobool3 = icmp ne i32 %5, 0
  br i1 %tobool3, label %if.then, label %if.end

if.then:                                          ; preds = %land.end
  %call4 = call i64 @dbus_display_console_get_type_once()
  store i64 %call4, ptr %g_define_type_id, align 8
  %6 = load i64, ptr %g_define_type_id, align 8
  call void @g_once_init_leave(ptr noundef @dbus_display_console_get_type.static_g_define_type_id, i64 noundef %6)
  br label %if.end

if.end:                                           ; preds = %if.then, %land.end
  %7 = load i64, ptr @dbus_display_console_get_type.static_g_define_type_id, align 8
  ret i64 %7
}

; Function Attrs: nounwind sspstrong uwtable
define internal ptr @DBUS_DISPLAY_CONSOLE(ptr noundef %ptr) #0 {
entry:
  %ptr.addr = alloca ptr, align 8
  store ptr %ptr, ptr %ptr.addr, align 8
  %0 = load ptr, ptr %ptr.addr, align 8
  %call = call i64 @dbus_display_console_get_type()
  %call1 = call ptr @g_type_check_instance_cast(ptr noundef %0, i64 noundef %call)
  ret ptr %call1
}

; Function Attrs: nounwind sspstrong uwtable
define internal void @dbus_display_console_init(ptr noundef %object) #0 {
entry:
  %object.addr = alloca ptr, align 8
  %ddc = alloca ptr, align 8
  store ptr %object, ptr %object.addr, align 8
  %0 = load ptr, ptr %object.addr, align 8
  %call = call ptr @DBUS_DISPLAY_CONSOLE(ptr noundef %0)
  store ptr %call, ptr %ddc, align 8
  %call1 = call ptr @g_hash_table_new_full(ptr noundef @g_str_hash, ptr noundef @g_str_equal, ptr noundef null, ptr noundef @g_object_unref)
  %1 = load ptr, ptr %ddc, align 8
  %listeners = getelementptr inbounds %struct._DBusDisplayConsole, ptr %1, i32 0, i32 3
  store ptr %call1, ptr %listeners, align 8
  %2 = load ptr, ptr %ddc, align 8
  %dcl = getelementptr inbounds %struct._DBusDisplayConsole, ptr %2, i32 0, i32 1
  %ops = getelementptr inbounds %struct.DisplayChangeListener, ptr %dcl, i32 0, i32 1
  store ptr @dbus_console_dcl_ops, ptr %ops, align 8
  ret void
}